target datalayout = "e-m:e-p270:32:32-p271:32:32-p272:64:64-i64:64-i128:128-f80:128-n8:16:32:64-S128"
target triple = "x86_64-pc-linux-gnu"

%struct.qlog_st = type { %struct.qlog_trace_info_st, ptr, [1 x i64], i32, ptr, ptr, ptr, %struct.OSSL_TIME, %struct.OSSL_TIME, %struct.ossl_json_enc_st, i32, i32 }
%struct.qlog_trace_info_st = type { %struct.quic_conn_id_st, ptr, ptr, ptr, i32, ptr, ptr, i64, ptr }
%struct.quic_conn_id_st = type { i8, [20 x i8] }
%struct.OSSL_TIME = type { i64 }
%struct.ossl_json_enc_st = type { i32, i8, i8, i8, ptr, i8, [16 x i8], %struct.json_write_buf, i64, i64 }
%struct.json_write_buf = type { ptr, ptr, i64, i64 }

; Function Attrs: nounwind uwtable
define void @ossl_qlog_i64(ptr noundef %0, ptr noundef %1, i64 noundef %2) #0 {
  %4 = alloca ptr, align 8
  %5 = alloca ptr, align 8
  %6 = alloca i64, align 8
  store ptr %0, ptr %4, align 8, !tbaa !8
  store ptr %1, ptr %5, align 8, !tbaa !39
  store i64 %2, ptr %6, align 8, !tbaa !40
  %7 = load ptr, ptr %5, align 8, !tbaa !39
  %8 = icmp ne ptr %7, null
  br i1 %8, label %9, label %13

9:                                                ; preds = %3
  %10 = load ptr, ptr %4, align 8, !tbaa !8
  %11 = getelementptr inbounds nuw %struct.qlog_st, ptr %10, i32 0, i32 9
  %12 = load ptr, ptr %5, align 8, !tbaa !39
  call void @ossl_json_key(ptr noundef %11, ptr noundef %12)
  br label %13

13:                                               ; preds = %9, %3
  %14 = load ptr, ptr %4, align 8, !tbaa !8
  %15 = getelementptr inbounds nuw %struct.qlog_st, ptr %14, i32 0, i32 9
  %16 = load i64, ptr %6, align 8, !tbaa !40
  call void @ossl_json_i64(ptr noundef %15, i64 noundef %16)
  ret void
}